target datalayout = "e-m:e-p270:32:32-p271:32:32-p272:64:64-i64:64-i128:128-f80:128-n8:16:32:64-S128"
target triple = "x86_64-pc-linux-gnu"

%struct._phpdbg_command_t = type { ptr, i64, ptr, i64, i8, ptr, ptr, ptr, ptr, i8 }

@.str.10 = private unnamed_addr constant [40 x i8] c"Command: **%s**  Alias: **%c**  **%s**\0A\00", align 1

; Function Attrs: nounwind uwtable
define hidden void @summary_print(ptr noundef %0) #0 {
  %2 = alloca ptr, align 8
  %3 = alloca ptr, align 8
  store ptr %0, ptr %2, align 8
  %4 = load ptr, ptr %2, align 8
  %5 = getelementptr inbounds %struct._phpdbg_command_t, ptr %4, i32 0, i32 0
  %6 = load ptr, ptr %5, align 8
  %7 = load ptr, ptr %2, align 8
  %8 = getelementptr inbounds %struct._phpdbg_command_t, ptr %7, i32 0, i32 4
  %9 = load i8, ptr %8, align 8
  %10 = sext i8 %9 to i32
  %11 = load ptr, ptr %2, align 8
  %12 = getelementptr inbounds %struct._phpdbg_command_t, ptr %11, i32 0, i32 2
  %13 = load ptr, ptr %12, align 8
  %14 = call i64 (ptr, i64, ptr, ...) @zend_spprintf(ptr noundef %3, i64 noundef 0, ptr noundef @.str.10, ptr noundef %6, i32 noundef %10, ptr noundef %13)
  %15 = load ptr, ptr %3, align 8
  call void @pretty_print(ptr noundef %15)
  %16 = load ptr, ptr %3, align 8
  call void @_efree(ptr noundef %16)
  ret void
}