; Function Attrs: nounwind uwtable
define hidden void @summary_print(ptr nocapture noundef readonly %0) local_unnamed_addr #0 {
  %2 = alloca ptr, align 8
  %3 = load ptr, ptr %0, align 8
  %4 = getelementptr inbounds i8, ptr %0, i64 32
  %5 = load i8, ptr %4, align 8
  %6 = sext i8 %5 to i32
  %7 = getelementptr inbounds i8, ptr %0, i64 16
  %8 = load ptr, ptr %7, align 8
  %9 = call i64 (ptr, i64, ptr, ...) @zend_spprintf(ptr noundef nonnull %2, i64 noundef 0, ptr noundef nonnull @.str.10, ptr noundef %3, i32 noundef %6, ptr noundef %8) #6
  %10 = load ptr, ptr %2, align 8
  call fastcc void @pretty_print(ptr noundef %10)
  %11 = load ptr, ptr %2, align 8
  call void @_efree(ptr noundef %11) #6
  ret void
}